target datalayout = "e-m:e-p270:32:32-p271:32:32-p272:64:64-i64:64-i128:128-f80:128-n8:16:32:64-S128"
target triple = "x86_64-pc-linux-gnu"

%"class.cv::gapi::wip::gst::GStreamerSource::Priv" = type { ptr, %"class.std::shared_ptr", %"class.cv::gapi::wip::gst::GStreamerPtr", %"class.cv::gapi::wip::gst::GStreamerPtr.2", ptr, %struct._GstVideoInfo, i32, %"struct.cv::GMatDesc", %"struct.cv::GFrameDesc", i8, i8, i64, i64 }
%"class.std::shared_ptr" = type { %"class.std::__shared_ptr" }
%"class.std::__shared_ptr" = type { ptr, %"class.std::__shared_count" }
%"class.std::__shared_count" = type { ptr }
%"class.cv::gapi::wip::gst::GStreamerPtr" = type { %"class.std::unique_ptr" }
%"class.std::unique_ptr" = type { %"struct.std::__uniq_ptr_data" }
%"struct.std::__uniq_ptr_data" = type { %"class.std::__uniq_ptr_impl" }
%"class.std::__uniq_ptr_impl" = type { %"class.std::tuple" }
%"class.std::tuple" = type { %"struct.std::_Tuple_impl" }
%"struct.std::_Tuple_impl" = type { %"struct.std::_Tuple_impl.0", %"struct.std::_Head_base.1" }
%"struct.std::_Tuple_impl.0" = type { %"struct.std::_Head_base" }
%"struct.std::_Head_base" = type { ptr }
%"struct.std::_Head_base.1" = type { ptr }
%"class.cv::gapi::wip::gst::GStreamerPtr.2" = type { %"class.std::unique_ptr.3" }
%"class.std::unique_ptr.3" = type { %"struct.std::__uniq_ptr_data.4" }
%"struct.std::__uniq_ptr_data.4" = type { %"class.std::__uniq_ptr_impl.5" }
%"class.std::__uniq_ptr_impl.5" = type { %"class.std::tuple.6" }
%"class.std::tuple.6" = type { %"struct.std::_Tuple_impl.7" }
%"struct.std::_Tuple_impl.7" = type { %"struct.std::_Tuple_impl.8", %"struct.std::_Head_base.10" }
%"struct.std::_Tuple_impl.8" = type { %"struct.std::_Head_base.9" }
%"struct.std::_Head_base.9" = type { ptr }
%"struct.std::_Head_base.10" = type { ptr }
%struct._GstVideoInfo = type { ptr, i32, i32, i32, i32, i64, i32, i32, %struct.GstVideoColorimetry, i32, i32, i32, i32, [4 x i64], [4 x i32], %union.anon }
%struct.GstVideoColorimetry = type { i32, i32, i32, i32 }
%union.anon = type { [4 x ptr] }
%"struct.cv::GMatDesc" = type { i32, i32, %"class.cv::Size_", i8, %"class.std::vector" }
%"class.cv::Size_" = type { i32, i32 }
%"class.std::vector" = type { %"struct.std::_Vector_base" }
%"struct.std::_Vector_base" = type { %"struct.std::_Vector_base<int, std::allocator<int>>::_Vector_impl" }
%"struct.std::_Vector_base<int, std::allocator<int>>::_Vector_impl" = type { %"struct.std::_Vector_base<int, std::allocator<int>>::_Vector_impl_data" }
%"struct.std::_Vector_base<int, std::allocator<int>>::_Vector_impl_data" = type { ptr, ptr, ptr }
%"struct.cv::GFrameDesc" = type { i32, %"class.cv::Size_" }
%"class.cv::util::variant.37" = type { i64, [1 x %"union.std::aligned_storage<48, 8>::type"] }
%"union.std::aligned_storage<48, 8>::type" = type { [48 x i8] }
%"struct.std::array.99" = type { [6 x ptr] }
%"class.cv::gapi::wip::gst::GStreamerSource" = type { %"class.cv::gapi::wip::IStreamSource", %"class.std::unique_ptr.59" }
%"class.cv::gapi::wip::IStreamSource" = type { ptr, %"class.std::enable_shared_from_this" }
%"class.std::enable_shared_from_this" = type { %"class.std::weak_ptr" }
%"class.std::weak_ptr" = type { %"class.std::__weak_ptr" }
%"class.std::__weak_ptr" = type { ptr, %"class.std::__weak_count" }
%"class.std::__weak_count" = type { ptr }
%"class.std::unique_ptr.59" = type { %"struct.std::__uniq_ptr_data.60" }
%"struct.std::__uniq_ptr_data.60" = type { %"class.std::__uniq_ptr_impl.61" }
%"class.std::__uniq_ptr_impl.61" = type { %"class.std::tuple.62" }
%"class.std::tuple.62" = type { %"struct.std::_Tuple_impl.63" }
%"struct.std::_Tuple_impl.63" = type { %"struct.std::_Head_base.66" }
%"struct.std::_Head_base.66" = type { ptr }

; Function Attrs: mustprogress nounwind uwtable
define linkonce_odr hidden noundef nonnull align 8 dereferenceable(8) ptr @_ZNSt10_Head_baseILm0EPN2cv4gapi3wip3gst15GStreamerSource4PrivELb0EE7_M_headERKS7_(ptr noundef nonnull align 8 dereferenceable(8) %0) #6 comdat align 2 {
  %2 = alloca ptr, align 8
  store ptr %0, ptr %2, align 8, !tbaa !357
  %3 = load ptr, ptr %2, align 8, !tbaa !357
  %4 = getelementptr inbounds nuw %"struct.std::_Head_base.66", ptr %3, i32 0, i32 0
  ret ptr %4
}

; Function Attrs: mustprogress nounwind uwtable
define linkonce_odr hidden noundef nonnull align 8 dereferenceable(8) ptr @_ZNSt11_Tuple_implILm0EJPN2cv4gapi3wip3gst15GStreamerSource4PrivESt14default_deleteIS5_EEE7_M_headERKS9_(ptr noundef nonnull align 8 dereferenceable(8) %0) #6 comdat align 2 {
  %2 = alloca ptr, align 8
  store ptr %0, ptr %2, align 8, !tbaa !352
  %3 = load ptr, ptr %2, align 8, !tbaa !352
  %4 = call noundef nonnull align 8 dereferenceable(8) ptr @_ZNSt10_Head_baseILm0EPN2cv4gapi3wip3gst15GStreamerSource4PrivELb0EE7_M_headERKS7_(ptr noundef nonnull align 8 dereferenceable(8) %3) #3
  ret ptr %4
}

; Function Attrs: mustprogress nounwind uwtable
define linkonce_odr noundef nonnull align 8 dereferenceable(8) ptr @_ZSt12__get_helperILm0EPN2cv4gapi3wip3gst15GStreamerSource4PrivEJSt14default_deleteIS5_EEERKT0_RKSt11_Tuple_implIXT_EJS9_DpT1_EE(ptr noundef nonnull align 8 dereferenceable(8) %0) #6 comdat {
  %2 = alloca ptr, align 8
  store ptr %0, ptr %2, align 8, !tbaa !352
  %3 = load ptr, ptr %2, align 8, !tbaa !352
  %4 = call noundef nonnull align 8 dereferenceable(8) ptr @_ZNSt11_Tuple_implILm0EJPN2cv4gapi3wip3gst15GStreamerSource4PrivESt14default_deleteIS5_EEE7_M_headERKS9_(ptr noundef nonnull align 8 dereferenceable(8) %3) #3
  ret ptr %4
}

; Function Attrs: mustprogress nounwind uwtable
define linkonce_odr hidden noundef nonnull align 8 dereferenceable(8) ptr @_ZNSt14__array_traitsIPFvPNSt15aligned_storageILm48ELm8EE4typeEPvELm6EE6_S_refERA6_KS6_m(ptr noundef nonnull align 8 dereferenceable(48) %0, i64 noundef %1) #6 comdat align 2 {
  %3 = alloca ptr, align 8
  %4 = alloca i64, align 8
  store ptr %0, ptr %3, align 8, !tbaa !211
  store i64 %1, ptr %4, align 8, !tbaa !94
  %5 = load ptr, ptr %3, align 8, !tbaa !211
  %6 = load i64, ptr %4, align 8, !tbaa !94
  %7 = getelementptr inbounds nuw [6 x ptr], ptr %5, i64 0, i64 %6
  ret ptr %7
}

; Function Attrs: mustprogress nounwind uwtable
define linkonce_odr noundef nonnull align 8 dereferenceable(8) ptr @_ZSt3getILm0EJPN2cv4gapi3wip3gst15GStreamerSource4PrivESt14default_deleteIS5_EEERKNSt13tuple_elementIXT_ESt5tupleIJDpT0_EEE4typeERKSD_(ptr noundef nonnull align 8 dereferenceable(8) %0) #6 comdat {
  %2 = alloca ptr, align 8
  store ptr %0, ptr %2, align 8, !tbaa !350
  %3 = load ptr, ptr %2, align 8, !tbaa !350
  %4 = call noundef nonnull align 8 dereferenceable(8) ptr @_ZSt12__get_helperILm0EPN2cv4gapi3wip3gst15GStreamerSource4PrivEJSt14default_deleteIS5_EEERKT0_RKSt11_Tuple_implIXT_EJS9_DpT1_EE(ptr noundef nonnull align 8 dereferenceable(8) %3) #3
  ret ptr %4
}

; Function Attrs: mustprogress nounwind uwtable
define linkonce_odr hidden noundef nonnull align 8 dereferenceable(8) ptr @_ZNSt5arrayIPFvPNSt15aligned_storageILm48ELm8EE4typeEPvELm6EEixEm(ptr noundef nonnull align 8 dereferenceable(48) %0, i64 noundef %1) #6 comdat align 2 {
  %3 = alloca ptr, align 8
  %4 = alloca i64, align 8
  store ptr %0, ptr %3, align 8, !tbaa !582
  store i64 %1, ptr %4, align 8, !tbaa !94
  %5 = load ptr, ptr %3, align 8
  %6 = getelementptr inbounds nuw %"struct.std::array.99", ptr %5, i32 0, i32 0
  %7 = load i64, ptr %4, align 8, !tbaa !94
  %8 = call noundef nonnull align 8 dereferenceable(8) ptr @_ZNSt14__array_traitsIPFvPNSt15aligned_storageILm48ELm8EE4typeEPvELm6EE6_S_refERA6_KS6_m(ptr noundef nonnull align 8 dereferenceable(48) %6, i64 noundef %7) #3
  ret ptr %8
}

; Function Attrs: mustprogress nounwind uwtable
define linkonce_odr hidden void @_ZN2cv4util7variantIJNS0_9monostateENS_8GMatDescENS_11GScalarDescENS_10GArrayDescENS_11GOpaqueDescENS_10GFrameDescEEE11cnvrt_ctorsILb1EEESt5arrayIPFvPNSt15aligned_storageILm48ELm8EE4typeEPvELm6EEv(ptr dead_on_unwind noalias writable sret(%"struct.std::array.99") align 8 %0) #6 comdat align 2 {
  %2 = getelementptr inbounds nuw %"struct.std::array.99", ptr %0, i32 0, i32 0
  call void @llvm.memcpy.p0.p0.i64(ptr align 8 %2, ptr align 8 @constinit.26, i64 48, i1 false), !tbaa.struct !581
  ret void
}

; Function Attrs: mustprogress nounwind uwtable
define linkonce_odr hidden noundef ptr @_ZNKSt15__uniq_ptr_implIN2cv4gapi3wip3gst15GStreamerSource4PrivESt14default_deleteIS5_EE6_M_ptrEv(ptr noundef nonnull align 8 dereferenceable(8) %0) #6 comdat align 2 {
  %2 = alloca ptr, align 8
  store ptr %0, ptr %2, align 8, !tbaa !348
  %3 = load ptr, ptr %2, align 8
  %4 = getelementptr inbounds nuw %"class.std::__uniq_ptr_impl.61", ptr %3, i32 0, i32 0
  %5 = call noundef nonnull align 8 dereferenceable(8) ptr @_ZSt3getILm0EJPN2cv4gapi3wip3gst15GStreamerSource4PrivESt14default_deleteIS5_EEERKNSt13tuple_elementIXT_ESt5tupleIJDpT0_EEE4typeERKSD_(ptr noundef nonnull align 8 dereferenceable(8) %4) #3
  %6 = load ptr, ptr %5, align 8, !tbaa !3
  ret ptr %6
}

; Function Attrs: mustprogress nounwind uwtable
define linkonce_odr hidden void @_ZN2cv4util7variantIJNS0_9monostateENS_8GMatDescENS_11GScalarDescENS_10GArrayDescENS_11GOpaqueDescENS_10GFrameDescEEEC2Ev(ptr noundef nonnull align 8 dereferenceable(56) %0) unnamed_addr #6 comdat align 2 {
  %2 = alloca ptr, align 8
  store ptr %0, ptr %2, align 8, !tbaa !144
  %3 = load ptr, ptr %2, align 8
  %4 = getelementptr inbounds nuw %"class.cv::util::variant.37", ptr %3, i32 0, i32 0
  store i64 0, ptr %4, align 8, !tbaa !146
  ret void
}

; Function Attrs: mustprogress uwtable
define linkonce_odr hidden void @_ZN2cv4util7variantIJNS0_9monostateENS_8GMatDescENS_11GScalarDescENS_10GArrayDescENS_11GOpaqueDescENS_10GFrameDescEEEC2IRS3_vEEOT_(ptr noundef nonnull align 8 dereferenceable(56) %0, ptr noundef nonnull align 8 dereferenceable(48) %1) unnamed_addr #4 comdat align 2 {
  %3 = alloca ptr, align 8
  %4 = alloca ptr, align 8
  %5 = alloca i8, align 1
  %6 = alloca %"struct.std::array.99", align 8
  store ptr %0, ptr %3, align 8, !tbaa !144
  store ptr %1, ptr %4, align 8, !tbaa !77
  %7 = load ptr, ptr %3, align 8
  %8 = getelementptr inbounds nuw %"class.cv::util::variant.37", ptr %7, i32 0, i32 0
  store i64 1, ptr %8, align 8, !tbaa !146
  call void @llvm.lifetime.start.p0(i64 1, ptr %5) #3
  store i8 1, ptr %5, align 1, !tbaa !109
  call void @llvm.lifetime.start.p0(i64 48, ptr %6) #3
  call void @_ZN2cv4util7variantIJNS0_9monostateENS_8GMatDescENS_11GScalarDescENS_10GArrayDescENS_11GOpaqueDescENS_10GFrameDescEEE11cnvrt_ctorsILb1EEESt5arrayIPFvPNSt15aligned_storageILm48ELm8EE4typeEPvELm6EEv(ptr dead_on_unwind writable sret(%"struct.std::array.99") align 8 %6)
  %9 = getelementptr inbounds nuw %"class.cv::util::variant.37", ptr %7, i32 0, i32 0
  %10 = load i64, ptr %9, align 8, !tbaa !146
  %11 = call noundef nonnull align 8 dereferenceable(8) ptr @_ZNSt5arrayIPFvPNSt15aligned_storageILm48ELm8EE4typeEPvELm6EEixEm(ptr noundef nonnull align 8 dereferenceable(48) %6, i64 noundef %10) #3
  %12 = load ptr, ptr %11, align 8, !tbaa !74
  %13 = getelementptr inbounds nuw %"class.cv::util::variant.37", ptr %7, i32 0, i32 1
  %14 = getelementptr inbounds [1 x %"union.std::aligned_storage<48, 8>::type"], ptr %13, i64 0, i64 0
  %15 = load ptr, ptr %4, align 8, !tbaa !77
  call void %12(ptr noundef %14, ptr noundef %15)
  call void @llvm.lifetime.end.p0(i64 48, ptr %6) #3
  call void @llvm.lifetime.end.p0(i64 1, ptr %5) #3
  ret void
}

; Function Attrs: mustprogress uwtable
define linkonce_odr hidden void @_ZN2cv4util7variantIJNS0_9monostateENS_8GMatDescENS_11GScalarDescENS_10GArrayDescENS_11GOpaqueDescENS_10GFrameDescEEEC2IRS7_vEEOT_(ptr noundef nonnull align 8 dereferenceable(56) %0, ptr noundef nonnull align 4 dereferenceable(12) %1) unnamed_addr #4 comdat align 2 {
  %3 = alloca ptr, align 8
  %4 = alloca ptr, align 8
  %5 = alloca i8, align 1
  %6 = alloca %"struct.std::array.99", align 8
  store ptr %0, ptr %3, align 8, !tbaa !144
  store ptr %1, ptr %4, align 8, !tbaa !79
  %7 = load ptr, ptr %3, align 8
  %8 = getelementptr inbounds nuw %"class.cv::util::variant.37", ptr %7, i32 0, i32 0
  store i64 5, ptr %8, align 8, !tbaa !146
  call void @llvm.lifetime.start.p0(i64 1, ptr %5) #3
  store i8 1, ptr %5, align 1, !tbaa !109
  call void @llvm.lifetime.start.p0(i64 48, ptr %6) #3
  call void @_ZN2cv4util7variantIJNS0_9monostateENS_8GMatDescENS_11GScalarDescENS_10GArrayDescENS_11GOpaqueDescENS_10GFrameDescEEE11cnvrt_ctorsILb1EEESt5arrayIPFvPNSt15aligned_storageILm48ELm8EE4typeEPvELm6EEv(ptr dead_on_unwind writable sret(%"struct.std::array.99") align 8 %6)
  %9 = getelementptr inbounds nuw %"class.cv::util::variant.37", ptr %7, i32 0, i32 0
  %10 = load i64, ptr %9, align 8, !tbaa !146
  %11 = call noundef nonnull align 8 dereferenceable(8) ptr @_ZNSt5arrayIPFvPNSt15aligned_storageILm48ELm8EE4typeEPvELm6EEixEm(ptr noundef nonnull align 8 dereferenceable(48) %6, i64 noundef %10) #3
  %12 = load ptr, ptr %11, align 8, !tbaa !74
  %13 = getelementptr inbounds nuw %"class.cv::util::variant.37", ptr %7, i32 0, i32 1
  %14 = getelementptr inbounds [1 x %"union.std::aligned_storage<48, 8>::type"], ptr %13, i64 0, i64 0
  %15 = load ptr, ptr %4, align 8, !tbaa !79
  call void %12(ptr noundef %14, ptr noundef %15)
  call void @llvm.lifetime.end.p0(i64 48, ptr %6) #3
  call void @llvm.lifetime.end.p0(i64 1, ptr %5) #3
  ret void
}

; Function Attrs: mustprogress nounwind uwtable
define linkonce_odr hidden noundef ptr @_ZNKSt10unique_ptrIN2cv4gapi3wip3gst15GStreamerSource4PrivESt14default_deleteIS5_EE3getEv(ptr noundef nonnull align 8 dereferenceable(8) %0) #6 comdat align 2 {
  %2 = alloca ptr, align 8
  store ptr %0, ptr %2, align 8, !tbaa !207
  %3 = load ptr, ptr %2, align 8
  %4 = getelementptr inbounds nuw %"class.std::unique_ptr.59", ptr %3, i32 0, i32 0
  %5 = call noundef ptr @_ZNKSt15__uniq_ptr_implIN2cv4gapi3wip3gst15GStreamerSource4PrivESt14default_deleteIS5_EE6_M_ptrEv(ptr noundef nonnull align 8 dereferenceable(8) %4) #3
  ret ptr %5
}

; Function Attrs: mustprogress nounwind uwtable
define void @_ZN2cv4gapi3wip3gst15GStreamerSource4Priv8descr_ofEv(ptr dead_on_unwind noalias writable sret(%"class.cv::util::variant.37") align 8 %0, ptr noundef nonnull align 8 dereferenceable(304) %1) #6 align 2 personality ptr @__gxx_personality_v0 {
  %3 = alloca ptr, align 8
  %4 = alloca ptr, align 8
  store ptr %0, ptr %3, align 8
  store ptr %1, ptr %4, align 8, !tbaa !3
  %5 = load ptr, ptr %4, align 8
  invoke void @_ZN2cv4gapi3wip3gst15GStreamerSource4Priv16prepareVideoMetaEv(ptr noundef nonnull align 8 dereferenceable(304) %5)
          to label %6 unwind label %17

6:                                                ; preds = %2
  %7 = getelementptr inbounds nuw %"class.cv::gapi::wip::gst::GStreamerSource::Priv", ptr %5, i32 0, i32 6
  %8 = load i32, ptr %7, align 8, !tbaa !64
  switch i32 %8, label %15 [
    i32 0, label %9
    i32 1, label %12
  ]

9:                                                ; preds = %6
  %10 = getelementptr inbounds nuw %"class.cv::gapi::wip::gst::GStreamerSource::Priv", ptr %5, i32 0, i32 8
  invoke void @_ZN2cv4util7variantIJNS0_9monostateENS_8GMatDescENS_11GScalarDescENS_10GArrayDescENS_11GOpaqueDescENS_10GFrameDescEEEC2IRS7_vEEOT_(ptr noundef nonnull align 8 dereferenceable(56) %0, ptr noundef nonnull align 4 dereferenceable(12) %10)
          to label %11 unwind label %17

11:                                               ; preds = %9
  br label %16

12:                                               ; preds = %6
  %13 = getelementptr inbounds nuw %"class.cv::gapi::wip::gst::GStreamerSource::Priv", ptr %5, i32 0, i32 7
  invoke void @_ZN2cv4util7variantIJNS0_9monostateENS_8GMatDescENS_11GScalarDescENS_10GArrayDescENS_11GOpaqueDescENS_10GFrameDescEEEC2IRS3_vEEOT_(ptr noundef nonnull align 8 dereferenceable(56) %0, ptr noundef nonnull align 8 dereferenceable(48) %13)
          to label %14 unwind label %17

14:                                               ; preds = %12
  br label %16

15:                                               ; preds = %6
  call void @_ZN2cv4util7variantIJNS0_9monostateENS_8GMatDescENS_11GScalarDescENS_10GArrayDescENS_11GOpaqueDescENS_10GFrameDescEEEC2Ev(ptr noundef nonnull align 8 dereferenceable(56) %0) #3
  br label %16

16:                                               ; preds = %15, %14, %11
  ret void

17:                                               ; preds = %12, %9, %2
  %18 = landingpad { ptr, i32 }
          catch ptr null
  %19 = extractvalue { ptr, i32 } %18, 0
  call void @__clang_call_terminate(ptr %19) #22
  unreachable
}

; Function Attrs: mustprogress nounwind uwtable
define linkonce_odr hidden noundef ptr @_ZNKSt10unique_ptrIN2cv4gapi3wip3gst15GStreamerSource4PrivESt14default_deleteIS5_EEptEv(ptr noundef nonnull align 8 dereferenceable(8) %0) #6 comdat align 2 {
  %2 = alloca ptr, align 8
  store ptr %0, ptr %2, align 8, !tbaa !207
  %3 = load ptr, ptr %2, align 8
  %4 = call noundef ptr @_ZNKSt10unique_ptrIN2cv4gapi3wip3gst15GStreamerSource4PrivESt14default_deleteIS5_EE3getEv(ptr noundef nonnull align 8 dereferenceable(8) %3) #3
  ret ptr %4
}

; Function Attrs: mustprogress nounwind uwtable
define void @_ZNK2cv4gapi3wip3gst15GStreamerSource8descr_ofEv(ptr dead_on_unwind noalias writable sret(%"class.cv::util::variant.37") align 8 %0, ptr noundef nonnull align 8 dereferenceable(32) %1) unnamed_addr #6 align 2 {
  %3 = alloca ptr, align 8
  %4 = alloca ptr, align 8
  store ptr %0, ptr %3, align 8
  store ptr %1, ptr %4, align 8, !tbaa !203
  %5 = load ptr, ptr %4, align 8
  %6 = getelementptr inbounds nuw %"class.cv::gapi::wip::gst::GStreamerSource", ptr %5, i32 0, i32 1
  %7 = call noundef ptr @_ZNKSt10unique_ptrIN2cv4gapi3wip3gst15GStreamerSource4PrivESt14default_deleteIS5_EEptEv(ptr noundef nonnull align 8 dereferenceable(8) %6) #3
  call void @_ZN2cv4gapi3wip3gst15GStreamerSource4Priv8descr_ofEv(ptr dead_on_unwind writable sret(%"class.cv::util::variant.37") align 8 %0, ptr noundef nonnull align 8 dereferenceable(304) %7) #3
  ret void
}