; Function Attrs: mustprogress nounwind uwtable
define void @_ZNK2cv4gapi3wip3gst15GStreamerSource8descr_ofEv(ptr dead_on_unwind noalias writable writeonly sret(%"class.cv::util::variant.37") align 8 captures(none) %0, ptr noundef nonnull readonly align 8 captures(none) dereferenceable(32) %1) unnamed_addr #6 align 2 personality ptr @__gxx_personality_v0 {
  %3 = getelementptr inbounds nuw i8, ptr %1, i64 24
  %4 = load ptr, ptr %3, align 8, !tbaa !145
  tail call void @llvm.experimental.noalias.scope.decl(metadata !147)
  invoke void @_ZN2cv4gapi3wip3gst15GStreamerSource4Priv16prepareVideoMetaEv(ptr noundef nonnull align 8 dereferenceable(304) %4)
          to label %5 unwind label %33, !noalias !147

5:                                                ; preds = %2
  %6 = getelementptr inbounds nuw i8, ptr %4, i64 216
  %7 = load i32, ptr %6, align 8, !tbaa !29, !noalias !147
  switch i32 %7, label %32 [
    i32 0, label %8
    i32 1, label %11
  ]

8:                                                ; preds = %5
  %9 = getelementptr inbounds nuw i8, ptr %4, i64 272
  store i64 5, ptr %0, align 8, !tbaa !128, !alias.scope !147
  %10 = getelementptr inbounds nuw i8, ptr %0, i64 8
  tail call void @llvm.memcpy.p0.p0.i64(ptr noundef nonnull align 8 dereferenceable(12) %10, ptr noundef nonnull align 8 dereferenceable(12) %9, i64 12, i1 false), !tbaa.struct !130
  br label %_ZN2cv4gapi3wip3gst15GStreamerSource4Priv8descr_ofEv.exit

11:                                               ; preds = %5
  %12 = getelementptr inbounds nuw i8, ptr %4, i64 224
  store i64 1, ptr %0, align 8, !tbaa !128, !alias.scope !147
  %13 = getelementptr inbounds nuw i8, ptr %0, i64 8
  tail call void @llvm.memcpy.p0.p0.i64(ptr noundef nonnull align 8 dereferenceable(48) %13, ptr noundef nonnull align 8 dereferenceable(48) %12, i64 17, i1 false)
  %14 = getelementptr inbounds nuw i8, ptr %0, i64 32
  %15 = getelementptr inbounds nuw i8, ptr %4, i64 248
  %16 = getelementptr inbounds nuw i8, ptr %4, i64 256
  %17 = load ptr, ptr %16, align 8, !tbaa !132, !noalias !147
  %18 = load ptr, ptr %15, align 8, !tbaa !86, !noalias !147
  %19 = ptrtoint ptr %17 to i64
  %20 = ptrtoint ptr %18 to i64
  %21 = sub i64 %19, %20
  tail call void @llvm.memset.p0.i64(ptr noundef nonnull align 8 dereferenceable(24) %14, i8 0, i64 24, i1 false), !alias.scope !147
  %.not.i.i.i.i.i.i.i.i = icmp eq ptr %17, %18
  br i1 %.not.i.i.i.i.i.i.i.i, label %.noexc1.thread.i, label %24

.noexc1.thread.i:                                 ; preds = %11
  %22 = getelementptr inbounds i8, ptr null, i64 %21
  %23 = getelementptr inbounds nuw i8, ptr %0, i64 48
  store i64 0, ptr %14, align 8
  store ptr %22, ptr %23, align 8, !tbaa !133, !alias.scope !147
  br label %_ZN2cv4util7variantIJNS0_9monostateENS_8GMatDescENS_11GScalarDescENS_10GArrayDescENS_11GOpaqueDescENS_10GFrameDescEEEC2IRS3_vEEOT_.exit.i

24:                                               ; preds = %11
  %25 = icmp ugt i64 %21, 9223372036854775804
  br i1 %25, label %.noexc.i.i.i.i.i.i, label %_ZNSt16allocator_traitsISaIiEE8allocateERS0_m.exit.i.i.i.i.i.i.i.i, !prof !89

.noexc.i.i.i.i.i.i:                               ; preds = %24
  invoke void @_ZSt28__throw_bad_array_new_lengthv() #27
          to label %.noexc.i unwind label %33, !noalias !147

.noexc.i:                                         ; preds = %.noexc.i.i.i.i.i.i
  unreachable

_ZNSt16allocator_traitsISaIiEE8allocateERS0_m.exit.i.i.i.i.i.i.i.i: ; preds = %24
  %26 = invoke noalias noundef nonnull ptr @_Znwm(i64 noundef %21) #24
          to label %27 unwind label %33, !noalias !147

27:                                               ; preds = %_ZNSt16allocator_traitsISaIiEE8allocateERS0_m.exit.i.i.i.i.i.i.i.i
  store ptr %26, ptr %14, align 8, !tbaa !86, !alias.scope !147
  %28 = getelementptr inbounds nuw i8, ptr %26, i64 %21
  %29 = getelementptr inbounds nuw i8, ptr %0, i64 48
  store ptr %28, ptr %29, align 8, !tbaa !133, !alias.scope !147
  tail call void @llvm.memmove.p0.p0.i64(ptr nonnull align 4 %26, ptr align 4 %18, i64 %21, i1 false), !noalias !147
  br label %_ZN2cv4util7variantIJNS0_9monostateENS_8GMatDescENS_11GScalarDescENS_10GArrayDescENS_11GOpaqueDescENS_10GFrameDescEEEC2IRS3_vEEOT_.exit.i

_ZN2cv4util7variantIJNS0_9monostateENS_8GMatDescENS_11GScalarDescENS_10GArrayDescENS_11GOpaqueDescENS_10GFrameDescEEEC2IRS3_vEEOT_.exit.i: ; preds = %27, %.noexc1.thread.i
  %30 = phi ptr [ %22, %.noexc1.thread.i ], [ %28, %27 ]
  %31 = getelementptr inbounds nuw i8, ptr %0, i64 40
  store ptr %30, ptr %31, align 8, !tbaa !132, !alias.scope !147
  br label %_ZN2cv4gapi3wip3gst15GStreamerSource4Priv8descr_ofEv.exit

32:                                               ; preds = %5
  store i64 0, ptr %0, align 8, !tbaa !128, !alias.scope !147
  br label %_ZN2cv4gapi3wip3gst15GStreamerSource4Priv8descr_ofEv.exit

33:                                               ; preds = %_ZNSt16allocator_traitsISaIiEE8allocateERS0_m.exit.i.i.i.i.i.i.i.i, %.noexc.i.i.i.i.i.i, %2
  %34 = landingpad { ptr, i32 }
          catch ptr null
  %35 = extractvalue { ptr, i32 } %34, 0
  tail call void @__clang_call_terminate(ptr %35) #28, !noalias !147
  unreachable

_ZN2cv4gapi3wip3gst15GStreamerSource4Priv8descr_ofEv.exit: ; preds = %8, %_ZN2cv4util7variantIJNS0_9monostateENS_8GMatDescENS_11GScalarDescENS_10GArrayDescENS_11GOpaqueDescENS_10GFrameDescEEEC2IRS3_vEEOT_.exit.i, %32
  ret void
}